; ModuleID = '47/1842.cpp'
source_filename = "47/1842.cpp"
target datalayout = "e-m:e-p270:32:32-p271:32:32-p272:64:64-i64:64-f80:128-n8:16:32:64-S128"
target triple = "x86_64-pc-linux-gnu"

%"class.std::ios_base::Init" = type { i8 }
%"class.std::basic_istream" = type { i32 (...)**, i64, %"class.std::basic_ios" }
%"class.std::basic_ios" = type { %"class.std::ios_base", %"class.std::basic_ostream"*, i8, i8, %"class.std::basic_streambuf"*, %"class.std::ctype"*, %"class.std::num_put"*, %"class.std::num_get"* }
%"class.std::ios_base" = type { i32 (...)**, i64, i64, i32, i32, i32, %"struct.std::ios_base::_Callback_list"*, %"struct.std::ios_base::_Words", [8 x %"struct.std::ios_base::_Words"], i32, %"struct.std::ios_base::_Words"*, %"class.std::locale" }
%"struct.std::ios_base::_Callback_list" = type { %"struct.std::ios_base::_Callback_list"*, void (i32, %"class.std::ios_base"*, i32)*, i32, i32 }
%"struct.std::ios_base::_Words" = type { i8*, i64 }
%"class.std::locale" = type { %"class.std::locale::_Impl"* }
%"class.std::locale::_Impl" = type { i32, %"class.std::locale::facet"**, i64, %"class.std::locale::facet"**, i8** }
%"class.std::locale::facet" = type <{ i32 (...)**, i32, [4 x i8] }>
%"class.std::basic_ostream" = type { i32 (...)**, %"class.std::basic_ios" }
%"class.std::basic_streambuf" = type { i32 (...)**, i8*, i8*, i8*, i8*, i8*, i8*, %"class.std::locale" }
%"class.std::ctype" = type <{ %"class.std::locale::facet.base", [4 x i8], %struct.__locale_struct*, i8, [7 x i8], i32*, i32*, i16*, i8, [256 x i8], [256 x i8], i8, [6 x i8] }>
%"class.std::locale::facet.base" = type <{ i32 (...)**, i32 }>
%struct.__locale_struct = type { [13 x %struct.__locale_data*], i16*, i32*, i32*, [13 x i8*] }
%struct.__locale_data = type opaque
%"class.std::num_put" = type { %"class.std::locale::facet.base", [4 x i8] }
%"class.std::num_get" = type { %"class.std::locale::facet.base", [4 x i8] }

@_ZStL8__ioinit = internal global %"class.std::ios_base::Init" zeroinitializer, align 1
@__dso_handle = external hidden global i8
@n = dso_local global i32 0, align 4
@a = dso_local global [101 x i32] zeroinitializer, align 16
@p1 = dso_local global i32* null, align 8
@p2 = dso_local global i32* null, align 8
@p3 = dso_local global i32* null, align 8
@_ZSt3cin = external dso_local global %"class.std::basic_istream", align 8
@_ZSt4cout = external dso_local global %"class.std::basic_ostream", align 8
@.str = private unnamed_addr constant [2 x i8] c" \00", align 1
@llvm.global_ctors = appending global [1 x { i32, void ()*, i8* }] [{ i32, void ()*, i8* } { i32 65535, void ()* @_GLOBAL__sub_I_1842.cpp, i8* null }]

; Function Attrs: noinline uwtable
define internal void @__cxx_global_var_init() #0 section ".text.startup" {
  call void @_ZNSt8ios_base4InitC1Ev(%"class.std::ios_base::Init"* @_ZStL8__ioinit)
  %1 = call i32 @__cxa_atexit(void (i8*)* bitcast (void (%"class.std::ios_base::Init"*)* @_ZNSt8ios_base4InitD1Ev to void (i8*)*), i8* getelementptr inbounds (%"class.std::ios_base::Init", %"class.std::ios_base::Init"* @_ZStL8__ioinit, i32 0, i32 0), i8* @__dso_handle) #3
  ret void
}

declare dso_local void @_ZNSt8ios_base4InitC1Ev(%"class.std::ios_base::Init"*) unnamed_addr #1

; Function Attrs: nounwind
declare dso_local void @_ZNSt8ios_base4InitD1Ev(%"class.std::ios_base::Init"*) unnamed_addr #2

; Function Attrs: nounwind
declare dso_local i32 @__cxa_atexit(void (i8*)*, i8*, i8*) #3

; Function Attrs: noinline norecurse uwtable
define dso_local i32 @main() #4 {
  %1 = alloca i32, align 4
  store i32 0, i32* %1, align 4
  %2 = call dereferenceable(280) %"class.std::basic_istream"* @_ZNSirsERi(%"class.std::basic_istream"* @_ZSt3cin, i32* dereferenceable(4) @n)
  store i32* getelementptr inbounds ([101 x i32], [101 x i32]* @a, i64 0, i64 0), i32** @p2, align 8
  br label %3

3:                                                ; preds = %10, %0
  %4 = load i32, i32* @n, align 4
  %5 = add nsw i32 %4, -1
  store i32 %5, i32* @n, align 4
  %6 = icmp ne i32 %4, 0
  br i1 %6, label %7, label %13

7:                                                ; preds = %3
  %8 = load i32*, i32** @p2, align 8
  %9 = call dereferenceable(280) %"class.std::basic_istream"* @_ZNSirsERi(%"class.std::basic_istream"* @_ZSt3cin, i32* dereferenceable(4) %8)
  br label %10

10:                                               ; preds = %7
  %11 = load i32*, i32** @p2, align 8
  %12 = getelementptr inbounds i32, i32* %11, i32 1
  store i32* %12, i32** @p2, align 8
  br label %3

13:                                               ; preds = %3
  %14 = load i32*, i32** @p2, align 8
  store i32* %14, i32** @p3, align 8
  store i32* getelementptr inbounds ([101 x i32], [101 x i32]* @a, i64 0, i64 0), i32** @p1, align 8
  %15 = load i32*, i32** @p2, align 8
  %16 = getelementptr inbounds i32, i32* %15, i32 -1
  store i32* %16, i32** @p2, align 8
  br label %17

17:                                               ; preds = %29, %13
  %18 = load i32*, i32** @p1, align 8
  %19 = load i32*, i32** @p2, align 8
  %20 = icmp ult i32* %18, %19
  br i1 %20, label %21, label %34

21:                                               ; preds = %17
  %22 = load i32*, i32** @p1, align 8
  %23 = load i32, i32* %22, align 4
  store i32 %23, i32* @n, align 4
  %24 = load i32*, i32** @p2, align 8
  %25 = load i32, i32* %24, align 4
  %26 = load i32*, i32** @p1, align 8
  store i32 %25, i32* %26, align 4
  %27 = load i32, i32* @n, align 4
  %28 = load i32*, i32** @p2, align 8
  store i32 %27, i32* %28, align 4
  br label %29

29:                                               ; preds = %21
  %30 = load i32*, i32** @p1, align 8
  %31 = getelementptr inbounds i32, i32* %30, i32 1
  store i32* %31, i32** @p1, align 8
  %32 = load i32*, i32** @p2, align 8
  %33 = getelementptr inbounds i32, i32* %32, i32 -1
  store i32* %33, i32** @p2, align 8
  br label %17

34:                                               ; preds = %17
  %35 = load i32, i32* getelementptr inbounds ([101 x i32], [101 x i32]* @a, i64 0, i64 0), align 16
  %36 = call dereferenceable(272) %"class.std::basic_ostream"* @_ZNSolsEi(%"class.std::basic_ostream"* @_ZSt4cout, i32 %35)
  store i32* getelementptr inbounds ([101 x i32], [101 x i32]* @a, i64 0, i64 1), i32** @p1, align 8
  br label %37

37:                                               ; preds = %46, %34
  %38 = load i32*, i32** @p1, align 8
  %39 = load i32*, i32** @p3, align 8
  %40 = icmp ult i32* %38, %39
  br i1 %40, label %41, label %49

41:                                               ; preds = %37
  %42 = call dereferenceable(272) %"class.std::basic_ostream"* @_ZStlsISt11char_traitsIcEERSt13basic_ostreamIcT_ES5_PKc(%"class.std::basic_ostream"* dereferenceable(272) @_ZSt4cout, i8* getelementptr inbounds ([2 x i8], [2 x i8]* @.str, i64 0, i64 0))
  %43 = load i32*, i32** @p1, align 8
  %44 = load i32, i32* %43, align 4
  %45 = call dereferenceable(272) %"class.std::basic_ostream"* @_ZNSolsEi(%"class.std::basic_ostream"* %42, i32 %44)
  br label %46

46:                                               ; preds = %41
  %47 = load i32*, i32** @p1, align 8
  %48 = getelementptr inbounds i32, i32* %47, i32 1
  store i32* %48, i32** @p1, align 8
  br label %37

49:                                               ; preds = %37
  ret i32 0
}

declare dso_local dereferenceable(280) %"class.std::basic_istream"* @_ZNSirsERi(%"class.std::basic_istream"*, i32* dereferenceable(4)) #1

declare dso_local dereferenceable(272) %"class.std::basic_ostream"* @_ZNSolsEi(%"class.std::basic_ostream"*, i32) #1

declare dso_local dereferenceable(272) %"class.std::basic_ostream"* @_ZStlsISt11char_traitsIcEERSt13basic_ostreamIcT_ES5_PKc(%"class.std::basic_ostream"* dereferenceable(272), i8*) #1

; Function Attrs: noinline uwtable
define internal void @_GLOBAL__sub_I_1842.cpp() #0 section ".text.startup" {
  call void @__cxx_global_var_init()
  ret void
}


!llvm.module.flags = !{!0}
!llvm.ident = !{!1}

!0 = !{i32 1, !"wchar_size", i32 4}
!1 = !{!"clang version 10.0.0-4ubuntu1 "}
